; Function Attrs: nounwind uwtable
define ptr @l_Lean_Meta_Grind_Arith_Cutsat_resolveConflict___lambda__6___boxed(ptr noundef readonly captures(none) %0) local_unnamed_addr #1 {
  %2 = load ptr, ptr %0, align 8, !tbaa !11
  %3 = getelementptr inbounds nuw i8, ptr %0, i64 8
  %4 = load ptr, ptr %3, align 8, !tbaa !11
  %5 = getelementptr inbounds nuw i8, ptr %0, i64 16
  %6 = load ptr, ptr %5, align 8, !tbaa !11
  %7 = getelementptr inbounds nuw i8, ptr %0, i64 24
  %8 = load ptr, ptr %7, align 8, !tbaa !11
  %9 = getelementptr inbounds nuw i8, ptr %0, i64 32
  %10 = load ptr, ptr %9, align 8, !tbaa !11
  %11 = getelementptr inbounds nuw i8, ptr %0, i64 40
  %12 = load ptr, ptr %11, align 8, !tbaa !11
  %13 = getelementptr inbounds nuw i8, ptr %0, i64 48
  %14 = load ptr, ptr %13, align 8, !tbaa !11
  %15 = getelementptr inbounds nuw i8, ptr %0, i64 56
  %16 = load ptr, ptr %15, align 8, !tbaa !11
  %17 = getelementptr inbounds nuw i8, ptr %0, i64 64
  %18 = load ptr, ptr %17, align 8, !tbaa !11
  %19 = getelementptr inbounds nuw i8, ptr %0, i64 72
  %20 = load ptr, ptr %19, align 8, !tbaa !11
  %21 = getelementptr inbounds nuw i8, ptr %0, i64 80
  %22 = load ptr, ptr %21, align 8, !tbaa !11
  %23 = getelementptr inbounds nuw i8, ptr %0, i64 88
  %24 = load ptr, ptr %23, align 8, !tbaa !11
  %25 = getelementptr inbounds nuw i8, ptr %0, i64 96
  %26 = load ptr, ptr %25, align 8, !tbaa !11
  %27 = getelementptr inbounds nuw i8, ptr %0, i64 104
  %28 = load ptr, ptr %27, align 8, !tbaa !11
  %29 = getelementptr inbounds nuw i8, ptr %0, i64 112
  %30 = load ptr, ptr %29, align 8, !tbaa !11
  %31 = getelementptr inbounds nuw i8, ptr %0, i64 120
  %32 = load ptr, ptr %31, align 8, !tbaa !11
  %33 = getelementptr inbounds nuw i8, ptr %0, i64 128
  %34 = load ptr, ptr %33, align 8, !tbaa !11
  %35 = ptrtoint ptr %14 to i64
  %36 = lshr i64 %35, 1
  %37 = trunc i64 %36 to i8
  %38 = and i64 %35, 1
  %.not = icmp eq i64 %38, 0
  br i1 %.not, label %39, label %lean_dec.exit37

39:                                               ; preds = %1
  %40 = load i32, ptr %14, align 4, !tbaa !6
  %41 = icmp sgt i32 %40, 1
  br i1 %41, label %42, label %44, !prof !5

42:                                               ; preds = %39
  %43 = add nsw i32 %40, -1
  store i32 %43, ptr %14, align 4, !tbaa !6
  br label %lean_dec.exit37

44:                                               ; preds = %39
  %.not.i = icmp eq i32 %40, 0
  br i1 %.not.i, label %lean_dec.exit37, label %45

45:                                               ; preds = %44
  tail call void @lean_dec_ref_cold(ptr noundef nonnull %14) #6
  br label %lean_dec.exit37

lean_dec.exit37:                                  ; preds = %45, %44, %42, %1
  %46 = tail call ptr @l_Lean_Meta_Grind_Arith_Cutsat_resolveConflict___lambda__6(ptr noundef %2, ptr noundef %4, ptr noundef %6, ptr noundef %8, ptr noundef %10, ptr poison, i8 noundef zeroext %37, ptr noundef %16, ptr noundef %18, ptr noundef %20, ptr noundef %22, ptr noundef %24, ptr noundef %26, ptr noundef %28, ptr noundef %30, ptr noundef %32, ptr noundef %34)
  %47 = ptrtoint ptr %12 to i64
  %48 = and i64 %47, 1
  %.not40 = icmp eq i64 %48, 0
  br i1 %.not40, label %49, label %lean_dec.exit

49:                                               ; preds = %lean_dec.exit37
  %50 = load i32, ptr %12, align 4, !tbaa !6
  %51 = icmp sgt i32 %50, 1
  br i1 %51, label %52, label %54, !prof !5

52:                                               ; preds = %49
  %53 = add nsw i32 %50, -1
  store i32 %53, ptr %12, align 4, !tbaa !6
  br label %lean_dec.exit

54:                                               ; preds = %49
  %.not.i38 = icmp eq i32 %50, 0
  br i1 %.not.i38, label %lean_dec.exit, label %55

55:                                               ; preds = %54
  tail call void @lean_dec_ref_cold(ptr noundef nonnull %12) #6
  br label %lean_dec.exit

lean_dec.exit:                                    ; preds = %55, %54, %52, %lean_dec.exit37
  ret ptr %46
}